target datalayout = "e-m:e-p270:32:32-p271:32:32-p272:64:64-i64:64-i128:128-f80:128-n8:16:32:64-S128"
target triple = "x86_64-pc-linux-gnu"

%struct.VP9DSPContext = type { [4 x [15 x ptr]], [5 x [4 x ptr]], [3 x [2 x ptr]], [2 x ptr], [2 x [2 x [2 x ptr]]], [5 x [4 x [2 x [2 x [2 x ptr]]]]], [5 x [4 x [2 x ptr]]] }

; Function Attrs: cold nounwind optsize uwtable
define internal void @ff_vp9dsp_scaled_mc_init_12(ptr noundef %0) #0 {
  %2 = alloca ptr, align 8
  store ptr %0, ptr %2, align 8, !tbaa !4
  %3 = load ptr, ptr %2, align 8, !tbaa !4
  call void @ff_vp9dsp_scaled_mc_init_10(ptr noundef %3)
  %4 = load ptr, ptr %2, align 8, !tbaa !4
  %5 = getelementptr inbounds nuw %struct.VP9DSPContext, ptr %4, i32 0, i32 6
  %6 = getelementptr inbounds [5 x [4 x [2 x ptr]]], ptr %5, i64 0, i64 0
  %7 = getelementptr inbounds [4 x [2 x ptr]], ptr %6, i64 0, i64 0
  %8 = getelementptr inbounds [2 x ptr], ptr %7, i64 0, i64 0
  store ptr @put_scaled_smooth_64_c, ptr %8, align 8, !tbaa !9
  %9 = load ptr, ptr %2, align 8, !tbaa !4
  %10 = getelementptr inbounds nuw %struct.VP9DSPContext, ptr %9, i32 0, i32 6
  %11 = getelementptr inbounds [5 x [4 x [2 x ptr]]], ptr %10, i64 0, i64 0
  %12 = getelementptr inbounds [4 x [2 x ptr]], ptr %11, i64 0, i64 1
  %13 = getelementptr inbounds [2 x ptr], ptr %12, i64 0, i64 0
  store ptr @put_scaled_regular_64_c, ptr %13, align 8, !tbaa !9
  %14 = load ptr, ptr %2, align 8, !tbaa !4
  %15 = getelementptr inbounds nuw %struct.VP9DSPContext, ptr %14, i32 0, i32 6
  %16 = getelementptr inbounds [5 x [4 x [2 x ptr]]], ptr %15, i64 0, i64 0
  %17 = getelementptr inbounds [4 x [2 x ptr]], ptr %16, i64 0, i64 2
  %18 = getelementptr inbounds [2 x ptr], ptr %17, i64 0, i64 0
  store ptr @put_scaled_sharp_64_c, ptr %18, align 8, !tbaa !9
  %19 = load ptr, ptr %2, align 8, !tbaa !4
  %20 = getelementptr inbounds nuw %struct.VP9DSPContext, ptr %19, i32 0, i32 6
  %21 = getelementptr inbounds [5 x [4 x [2 x ptr]]], ptr %20, i64 0, i64 0
  %22 = getelementptr inbounds [4 x [2 x ptr]], ptr %21, i64 0, i64 0
  %23 = getelementptr inbounds [2 x ptr], ptr %22, i64 0, i64 1
  store ptr @avg_scaled_smooth_64_c, ptr %23, align 8, !tbaa !9
  %24 = load ptr, ptr %2, align 8, !tbaa !4
  %25 = getelementptr inbounds nuw %struct.VP9DSPContext, ptr %24, i32 0, i32 6
  %26 = getelementptr inbounds [5 x [4 x [2 x ptr]]], ptr %25, i64 0, i64 0
  %27 = getelementptr inbounds [4 x [2 x ptr]], ptr %26, i64 0, i64 1
  %28 = getelementptr inbounds [2 x ptr], ptr %27, i64 0, i64 1
  store ptr @avg_scaled_regular_64_c, ptr %28, align 8, !tbaa !9
  %29 = load ptr, ptr %2, align 8, !tbaa !4
  %30 = getelementptr inbounds nuw %struct.VP9DSPContext, ptr %29, i32 0, i32 6
  %31 = getelementptr inbounds [5 x [4 x [2 x ptr]]], ptr %30, i64 0, i64 0
  %32 = getelementptr inbounds [4 x [2 x ptr]], ptr %31, i64 0, i64 2
  %33 = getelementptr inbounds [2 x ptr], ptr %32, i64 0, i64 1
  store ptr @avg_scaled_sharp_64_c, ptr %33, align 8, !tbaa !9
  %34 = load ptr, ptr %2, align 8, !tbaa !4
  %35 = getelementptr inbounds nuw %struct.VP9DSPContext, ptr %34, i32 0, i32 6
  %36 = getelementptr inbounds [5 x [4 x [2 x ptr]]], ptr %35, i64 0, i64 1
  %37 = getelementptr inbounds [4 x [2 x ptr]], ptr %36, i64 0, i64 0
  %38 = getelementptr inbounds [2 x ptr], ptr %37, i64 0, i64 0
  store ptr @put_scaled_smooth_32_c, ptr %38, align 8, !tbaa !9
  %39 = load ptr, ptr %2, align 8, !tbaa !4
  %40 = getelementptr inbounds nuw %struct.VP9DSPContext, ptr %39, i32 0, i32 6
  %41 = getelementptr inbounds [5 x [4 x [2 x ptr]]], ptr %40, i64 0, i64 1
  %42 = getelementptr inbounds [4 x [2 x ptr]], ptr %41, i64 0, i64 1
  %43 = getelementptr inbounds [2 x ptr], ptr %42, i64 0, i64 0
  store ptr @put_scaled_regular_32_c, ptr %43, align 8, !tbaa !9
  %44 = load ptr, ptr %2, align 8, !tbaa !4
  %45 = getelementptr inbounds nuw %struct.VP9DSPContext, ptr %44, i32 0, i32 6
  %46 = getelementptr inbounds [5 x [4 x [2 x ptr]]], ptr %45, i64 0, i64 1
  %47 = getelementptr inbounds [4 x [2 x ptr]], ptr %46, i64 0, i64 2
  %48 = getelementptr inbounds [2 x ptr], ptr %47, i64 0, i64 0
  store ptr @put_scaled_sharp_32_c, ptr %48, align 8, !tbaa !9
  %49 = load ptr, ptr %2, align 8, !tbaa !4
  %50 = getelementptr inbounds nuw %struct.VP9DSPContext, ptr %49, i32 0, i32 6
  %51 = getelementptr inbounds [5 x [4 x [2 x ptr]]], ptr %50, i64 0, i64 1
  %52 = getelementptr inbounds [4 x [2 x ptr]], ptr %51, i64 0, i64 0
  %53 = getelementptr inbounds [2 x ptr], ptr %52, i64 0, i64 1
  store ptr @avg_scaled_smooth_32_c, ptr %53, align 8, !tbaa !9
  %54 = load ptr, ptr %2, align 8, !tbaa !4
  %55 = getelementptr inbounds nuw %struct.VP9DSPContext, ptr %54, i32 0, i32 6
  %56 = getelementptr inbounds [5 x [4 x [2 x ptr]]], ptr %55, i64 0, i64 1
  %57 = getelementptr inbounds [4 x [2 x ptr]], ptr %56, i64 0, i64 1
  %58 = getelementptr inbounds [2 x ptr], ptr %57, i64 0, i64 1
  store ptr @avg_scaled_regular_32_c, ptr %58, align 8, !tbaa !9
  %59 = load ptr, ptr %2, align 8, !tbaa !4
  %60 = getelementptr inbounds nuw %struct.VP9DSPContext, ptr %59, i32 0, i32 6
  %61 = getelementptr inbounds [5 x [4 x [2 x ptr]]], ptr %60, i64 0, i64 1
  %62 = getelementptr inbounds [4 x [2 x ptr]], ptr %61, i64 0, i64 2
  %63 = getelementptr inbounds [2 x ptr], ptr %62, i64 0, i64 1
  store ptr @avg_scaled_sharp_32_c, ptr %63, align 8, !tbaa !9
  %64 = load ptr, ptr %2, align 8, !tbaa !4
  %65 = getelementptr inbounds nuw %struct.VP9DSPContext, ptr %64, i32 0, i32 6
  %66 = getelementptr inbounds [5 x [4 x [2 x ptr]]], ptr %65, i64 0, i64 2
  %67 = getelementptr inbounds [4 x [2 x ptr]], ptr %66, i64 0, i64 0
  %68 = getelementptr inbounds [2 x ptr], ptr %67, i64 0, i64 0
  store ptr @put_scaled_smooth_16_c, ptr %68, align 8, !tbaa !9
  %69 = load ptr, ptr %2, align 8, !tbaa !4
  %70 = getelementptr inbounds nuw %struct.VP9DSPContext, ptr %69, i32 0, i32 6
  %71 = getelementptr inbounds [5 x [4 x [2 x ptr]]], ptr %70, i64 0, i64 2
  %72 = getelementptr inbounds [4 x [2 x ptr]], ptr %71, i64 0, i64 1
  %73 = getelementptr inbounds [2 x ptr], ptr %72, i64 0, i64 0
  store ptr @put_scaled_regular_16_c, ptr %73, align 8, !tbaa !9
  %74 = load ptr, ptr %2, align 8, !tbaa !4
  %75 = getelementptr inbounds nuw %struct.VP9DSPContext, ptr %74, i32 0, i32 6
  %76 = getelementptr inbounds [5 x [4 x [2 x ptr]]], ptr %75, i64 0, i64 2
  %77 = getelementptr inbounds [4 x [2 x ptr]], ptr %76, i64 0, i64 2
  %78 = getelementptr inbounds [2 x ptr], ptr %77, i64 0, i64 0
  store ptr @put_scaled_sharp_16_c, ptr %78, align 8, !tbaa !9
  %79 = load ptr, ptr %2, align 8, !tbaa !4
  %80 = getelementptr inbounds nuw %struct.VP9DSPContext, ptr %79, i32 0, i32 6
  %81 = getelementptr inbounds [5 x [4 x [2 x ptr]]], ptr %80, i64 0, i64 2
  %82 = getelementptr inbounds [4 x [2 x ptr]], ptr %81, i64 0, i64 0
  %83 = getelementptr inbounds [2 x ptr], ptr %82, i64 0, i64 1
  store ptr @avg_scaled_smooth_16_c, ptr %83, align 8, !tbaa !9
  %84 = load ptr, ptr %2, align 8, !tbaa !4
  %85 = getelementptr inbounds nuw %struct.VP9DSPContext, ptr %84, i32 0, i32 6
  %86 = getelementptr inbounds [5 x [4 x [2 x ptr]]], ptr %85, i64 0, i64 2
  %87 = getelementptr inbounds [4 x [2 x ptr]], ptr %86, i64 0, i64 1
  %88 = getelementptr inbounds [2 x ptr], ptr %87, i64 0, i64 1
  store ptr @avg_scaled_regular_16_c, ptr %88, align 8, !tbaa !9
  %89 = load ptr, ptr %2, align 8, !tbaa !4
  %90 = getelementptr inbounds nuw %struct.VP9DSPContext, ptr %89, i32 0, i32 6
  %91 = getelementptr inbounds [5 x [4 x [2 x ptr]]], ptr %90, i64 0, i64 2
  %92 = getelementptr inbounds [4 x [2 x ptr]], ptr %91, i64 0, i64 2
  %93 = getelementptr inbounds [2 x ptr], ptr %92, i64 0, i64 1
  store ptr @avg_scaled_sharp_16_c, ptr %93, align 8, !tbaa !9
  %94 = load ptr, ptr %2, align 8, !tbaa !4
  %95 = getelementptr inbounds nuw %struct.VP9DSPContext, ptr %94, i32 0, i32 6
  %96 = getelementptr inbounds [5 x [4 x [2 x ptr]]], ptr %95, i64 0, i64 3
  %97 = getelementptr inbounds [4 x [2 x ptr]], ptr %96, i64 0, i64 0
  %98 = getelementptr inbounds [2 x ptr], ptr %97, i64 0, i64 0
  store ptr @put_scaled_smooth_8_c, ptr %98, align 8, !tbaa !9
  %99 = load ptr, ptr %2, align 8, !tbaa !4
  %100 = getelementptr inbounds nuw %struct.VP9DSPContext, ptr %99, i32 0, i32 6
  %101 = getelementptr inbounds [5 x [4 x [2 x ptr]]], ptr %100, i64 0, i64 3
  %102 = getelementptr inbounds [4 x [2 x ptr]], ptr %101, i64 0, i64 1
  %103 = getelementptr inbounds [2 x ptr], ptr %102, i64 0, i64 0
  store ptr @put_scaled_regular_8_c, ptr %103, align 8, !tbaa !9
  %104 = load ptr, ptr %2, align 8, !tbaa !4
  %105 = getelementptr inbounds nuw %struct.VP9DSPContext, ptr %104, i32 0, i32 6
  %106 = getelementptr inbounds [5 x [4 x [2 x ptr]]], ptr %105, i64 0, i64 3
  %107 = getelementptr inbounds [4 x [2 x ptr]], ptr %106, i64 0, i64 2
  %108 = getelementptr inbounds [2 x ptr], ptr %107, i64 0, i64 0
  store ptr @put_scaled_sharp_8_c, ptr %108, align 8, !tbaa !9
  %109 = load ptr, ptr %2, align 8, !tbaa !4
  %110 = getelementptr inbounds nuw %struct.VP9DSPContext, ptr %109, i32 0, i32 6
  %111 = getelementptr inbounds [5 x [4 x [2 x ptr]]], ptr %110, i64 0, i64 3
  %112 = getelementptr inbounds [4 x [2 x ptr]], ptr %111, i64 0, i64 0
  %113 = getelementptr inbounds [2 x ptr], ptr %112, i64 0, i64 1
  store ptr @avg_scaled_smooth_8_c, ptr %113, align 8, !tbaa !9
  %114 = load ptr, ptr %2, align 8, !tbaa !4
  %115 = getelementptr inbounds nuw %struct.VP9DSPContext, ptr %114, i32 0, i32 6
  %116 = getelementptr inbounds [5 x [4 x [2 x ptr]]], ptr %115, i64 0, i64 3
  %117 = getelementptr inbounds [4 x [2 x ptr]], ptr %116, i64 0, i64 1
  %118 = getelementptr inbounds [2 x ptr], ptr %117, i64 0, i64 1
  store ptr @avg_scaled_regular_8_c, ptr %118, align 8, !tbaa !9
  %119 = load ptr, ptr %2, align 8, !tbaa !4
  %120 = getelementptr inbounds nuw %struct.VP9DSPContext, ptr %119, i32 0, i32 6
  %121 = getelementptr inbounds [5 x [4 x [2 x ptr]]], ptr %120, i64 0, i64 3
  %122 = getelementptr inbounds [4 x [2 x ptr]], ptr %121, i64 0, i64 2
  %123 = getelementptr inbounds [2 x ptr], ptr %122, i64 0, i64 1
  store ptr @avg_scaled_sharp_8_c, ptr %123, align 8, !tbaa !9
  %124 = load ptr, ptr %2, align 8, !tbaa !4
  %125 = getelementptr inbounds nuw %struct.VP9DSPContext, ptr %124, i32 0, i32 6
  %126 = getelementptr inbounds [5 x [4 x [2 x ptr]]], ptr %125, i64 0, i64 4
  %127 = getelementptr inbounds [4 x [2 x ptr]], ptr %126, i64 0, i64 0
  %128 = getelementptr inbounds [2 x ptr], ptr %127, i64 0, i64 0
  store ptr @put_scaled_smooth_4_c, ptr %128, align 8, !tbaa !9
  %129 = load ptr, ptr %2, align 8, !tbaa !4
  %130 = getelementptr inbounds nuw %struct.VP9DSPContext, ptr %129, i32 0, i32 6
  %131 = getelementptr inbounds [5 x [4 x [2 x ptr]]], ptr %130, i64 0, i64 4
  %132 = getelementptr inbounds [4 x [2 x ptr]], ptr %131, i64 0, i64 1
  %133 = getelementptr inbounds [2 x ptr], ptr %132, i64 0, i64 0
  store ptr @put_scaled_regular_4_c, ptr %133, align 8, !tbaa !9
  %134 = load ptr, ptr %2, align 8, !tbaa !4
  %135 = getelementptr inbounds nuw %struct.VP9DSPContext, ptr %134, i32 0, i32 6
  %136 = getelementptr inbounds [5 x [4 x [2 x ptr]]], ptr %135, i64 0, i64 4
  %137 = getelementptr inbounds [4 x [2 x ptr]], ptr %136, i64 0, i64 2
  %138 = getelementptr inbounds [2 x ptr], ptr %137, i64 0, i64 0
  store ptr @put_scaled_sharp_4_c, ptr %138, align 8, !tbaa !9
  %139 = load ptr, ptr %2, align 8, !tbaa !4
  %140 = getelementptr inbounds nuw %struct.VP9DSPContext, ptr %139, i32 0, i32 6
  %141 = getelementptr inbounds [5 x [4 x [2 x ptr]]], ptr %140, i64 0, i64 4
  %142 = getelementptr inbounds [4 x [2 x ptr]], ptr %141, i64 0, i64 0
  %143 = getelementptr inbounds [2 x ptr], ptr %142, i64 0, i64 1
  store ptr @avg_scaled_smooth_4_c, ptr %143, align 8, !tbaa !9
  %144 = load ptr, ptr %2, align 8, !tbaa !4
  %145 = getelementptr inbounds nuw %struct.VP9DSPContext, ptr %144, i32 0, i32 6
  %146 = getelementptr inbounds [5 x [4 x [2 x ptr]]], ptr %145, i64 0, i64 4
  %147 = getelementptr inbounds [4 x [2 x ptr]], ptr %146, i64 0, i64 1
  %148 = getelementptr inbounds [2 x ptr], ptr %147, i64 0, i64 1
  store ptr @avg_scaled_regular_4_c, ptr %148, align 8, !tbaa !9
  %149 = load ptr, ptr %2, align 8, !tbaa !4
  %150 = getelementptr inbounds nuw %struct.VP9DSPContext, ptr %149, i32 0, i32 6
  %151 = getelementptr inbounds [5 x [4 x [2 x ptr]]], ptr %150, i64 0, i64 4
  %152 = getelementptr inbounds [4 x [2 x ptr]], ptr %151, i64 0, i64 2
  %153 = getelementptr inbounds [2 x ptr], ptr %152, i64 0, i64 1
  store ptr @avg_scaled_sharp_4_c, ptr %153, align 8, !tbaa !9
  ret void
}