; Function Attrs: cold nounwind optsize uwtable
define internal fastcc void @ff_vp9dsp_scaled_mc_init_12(ptr noundef %0) unnamed_addr #0 {
  tail call void @ff_vp9dsp_scaled_mc_init_10(ptr noundef %0) #11
  %2 = getelementptr inbounds nuw i8, ptr %0, i64 2048
  store ptr @put_scaled_smooth_64_c, ptr %2, align 8, !tbaa !4
  %3 = getelementptr inbounds nuw i8, ptr %0, i64 2064
  store ptr @put_scaled_regular_64_c, ptr %3, align 8, !tbaa !4
  %4 = getelementptr inbounds nuw i8, ptr %0, i64 2080
  store ptr @put_scaled_sharp_64_c, ptr %4, align 8, !tbaa !4
  %5 = getelementptr inbounds nuw i8, ptr %0, i64 2056
  store ptr @avg_scaled_smooth_64_c, ptr %5, align 8, !tbaa !4
  %6 = getelementptr inbounds nuw i8, ptr %0, i64 2072
  store ptr @avg_scaled_regular_64_c, ptr %6, align 8, !tbaa !4
  %7 = getelementptr inbounds nuw i8, ptr %0, i64 2088
  store ptr @avg_scaled_sharp_64_c, ptr %7, align 8, !tbaa !4
  %8 = getelementptr inbounds nuw i8, ptr %0, i64 2112
  store ptr @put_scaled_smooth_32_c, ptr %8, align 8, !tbaa !4
  %9 = getelementptr inbounds nuw i8, ptr %0, i64 2128
  store ptr @put_scaled_regular_32_c, ptr %9, align 8, !tbaa !4
  %10 = getelementptr inbounds nuw i8, ptr %0, i64 2144
  store ptr @put_scaled_sharp_32_c, ptr %10, align 8, !tbaa !4
  %11 = getelementptr inbounds nuw i8, ptr %0, i64 2120
  store ptr @avg_scaled_smooth_32_c, ptr %11, align 8, !tbaa !4
  %12 = getelementptr inbounds nuw i8, ptr %0, i64 2136
  store ptr @avg_scaled_regular_32_c, ptr %12, align 8, !tbaa !4
  %13 = getelementptr inbounds nuw i8, ptr %0, i64 2152
  store ptr @avg_scaled_sharp_32_c, ptr %13, align 8, !tbaa !4
  %14 = getelementptr inbounds nuw i8, ptr %0, i64 2176
  store ptr @put_scaled_smooth_16_c, ptr %14, align 8, !tbaa !4
  %15 = getelementptr inbounds nuw i8, ptr %0, i64 2192
  store ptr @put_scaled_regular_16_c, ptr %15, align 8, !tbaa !4
  %16 = getelementptr inbounds nuw i8, ptr %0, i64 2208
  store ptr @put_scaled_sharp_16_c, ptr %16, align 8, !tbaa !4
  %17 = getelementptr inbounds nuw i8, ptr %0, i64 2184
  store ptr @avg_scaled_smooth_16_c, ptr %17, align 8, !tbaa !4
  %18 = getelementptr inbounds nuw i8, ptr %0, i64 2200
  store ptr @avg_scaled_regular_16_c, ptr %18, align 8, !tbaa !4
  %19 = getelementptr inbounds nuw i8, ptr %0, i64 2216
  store ptr @avg_scaled_sharp_16_c, ptr %19, align 8, !tbaa !4
  %20 = getelementptr inbounds nuw i8, ptr %0, i64 2240
  store ptr @put_scaled_smooth_8_c, ptr %20, align 8, !tbaa !4
  %21 = getelementptr inbounds nuw i8, ptr %0, i64 2256
  store ptr @put_scaled_regular_8_c, ptr %21, align 8, !tbaa !4
  %22 = getelementptr inbounds nuw i8, ptr %0, i64 2272
  store ptr @put_scaled_sharp_8_c, ptr %22, align 8, !tbaa !4
  %23 = getelementptr inbounds nuw i8, ptr %0, i64 2248
  store ptr @avg_scaled_smooth_8_c, ptr %23, align 8, !tbaa !4
  %24 = getelementptr inbounds nuw i8, ptr %0, i64 2264
  store ptr @avg_scaled_regular_8_c, ptr %24, align 8, !tbaa !4
  %25 = getelementptr inbounds nuw i8, ptr %0, i64 2280
  store ptr @avg_scaled_sharp_8_c, ptr %25, align 8, !tbaa !4
  %26 = getelementptr inbounds nuw i8, ptr %0, i64 2304
  store ptr @put_scaled_smooth_4_c, ptr %26, align 8, !tbaa !4
  %27 = getelementptr inbounds nuw i8, ptr %0, i64 2320
  store ptr @put_scaled_regular_4_c, ptr %27, align 8, !tbaa !4
  %28 = getelementptr inbounds nuw i8, ptr %0, i64 2336
  store ptr @put_scaled_sharp_4_c, ptr %28, align 8, !tbaa !4
  %29 = getelementptr inbounds nuw i8, ptr %0, i64 2312
  store ptr @avg_scaled_smooth_4_c, ptr %29, align 8, !tbaa !4
  %30 = getelementptr inbounds nuw i8, ptr %0, i64 2328
  store ptr @avg_scaled_regular_4_c, ptr %30, align 8, !tbaa !4
  %31 = getelementptr inbounds nuw i8, ptr %0, i64 2344
  store ptr @avg_scaled_sharp_4_c, ptr %31, align 8, !tbaa !4
  ret void
}